; Function Attrs: mustprogress nofree norecurse nosync nounwind memory(argmem: readwrite) uwtable
define noundef range(i32 -1, -2147483648) i32 @_ZNK6icu_7714DayPeriodRules22getEndHourForDayPeriodENS0_9DayPeriodER10UErrorCode(ptr noundef nonnull readonly align 4 captures(none) dereferenceable(100) %0, i32 noundef %1, ptr noundef nonnull align 4 captures(none) dereferenceable(4) %2) local_unnamed_addr #14 align 2 {
  %4 = load i32, ptr %2, align 4, !tbaa !13
  %5 = icmp slt i32 %4, 1
  br i1 %5, label %6, label %.loopexit

6:                                                ; preds = %3
  switch i32 %1, label %8 [
    i32 0, label %.loopexit
    i32 1, label %7
  ]

7:                                                ; preds = %6
  br label %.loopexit

8:                                                ; preds = %6
  %9 = getelementptr inbounds nuw i8, ptr %0, i64 4
  %10 = load i32, ptr %9, align 4, !tbaa !34
  %11 = icmp eq i32 %10, %1
  %12 = getelementptr inbounds nuw i8, ptr %0, i64 96
  %13 = load i32, ptr %12, align 4
  %14 = icmp eq i32 %13, %1
  %or.cond = select i1 %11, i1 %14, i1 false
  br i1 %or.cond, label %.preheader, label %.preheader37

.preheader:                                       ; preds = %8, %17
  %indvars.iv = phi i64 [ %indvars.iv.next, %17 ], [ 1, %8 ]
  %15 = getelementptr inbounds nuw [24 x i32], ptr %9, i64 0, i64 %indvars.iv
  %16 = load i32, ptr %15, align 4, !tbaa !34
  %.not24 = icmp eq i32 %16, %1
  br i1 %.not24, label %17, label %.loopexit.loopexit

17:                                               ; preds = %.preheader
  %indvars.iv.next = add nuw nsw i64 %indvars.iv, 1
  %exitcond.not = icmp eq i64 %indvars.iv.next, 23
  br i1 %exitcond.not, label %.thread, label %.preheader, !llvm.loop !42

.preheader37:                                     ; preds = %8, %22
  %.041 = phi i32 [ %23, %22 ], [ 23, %8 ]
  %18 = zext nneg i32 %.041 to i64
  %19 = getelementptr inbounds nuw [24 x i32], ptr %9, i64 0, i64 %18
  %20 = load i32, ptr %19, align 4, !tbaa !34
  %21 = icmp eq i32 %20, %1
  br i1 %21, label %24, label %22

22:                                               ; preds = %.preheader37
  %23 = add nsw i32 %.041, -1
  %.not = icmp eq i32 %.041, 0
  br i1 %.not, label %.thread, label %.preheader37, !llvm.loop !43

24:                                               ; preds = %.preheader37
  %25 = add nuw nsw i32 %.041, 1
  br label %.loopexit

.thread:                                          ; preds = %22, %17
  store i32 1, ptr %2, align 4, !tbaa !13
  br label %.loopexit

.loopexit.loopexit:                               ; preds = %.preheader
  %26 = trunc nuw nsw i64 %indvars.iv to i32
  br label %.loopexit

.loopexit:                                        ; preds = %.loopexit.loopexit, %24, %6, %3, %.thread, %7
  %.021 = phi i32 [ 12, %7 ], [ -1, %.thread ], [ %25, %24 ], [ -1, %3 ], [ %1, %6 ], [ %26, %.loopexit.loopexit ]
  ret i32 %.021
}